Certificate:
    Data:
        Version: 3 (0x2)
        Serial Number: 1 (0x1)
    Signature Algorithm: sha256WithRSAEncryption
        Issuer: C=CN, ST=Chongqing, L=Chongqing, O=Chongqing Eming Technology Co., Ltd., OU=Chongqing Eming Technology Co., Ltd., CN=Wlniao CA/emailAddress=admin@wln.io
        Validity
            Not Before: Apr 13 15:06:57 2017 GMT
            Not After : Apr 13 15:06:57 2018 GMT
        Subject: C=CN, ST=Chongqing, O=Chongqing Eming Technology Co., Ltd., OU=Wlniao, CN=wlniao.cn/emailAddress=admin@wln.io
        Subject Public Key Info:
            Public Key Algorithm: rsaEncryption
                Public-Key: (2048 bit)
                Modulus:
                    00:94:fc:7f:b9:ee:23:1b:c8:95:2b:ab:dc:88:0c:
                    09:75:ad:d7:81:55:0c:e8:98:eb:59:7c:71:6f:2d:
                    34:31:fb:2e:84:6a:b1:20:db:0b:fd:e5:25:26:24:
                    7c:eb:6c:9f:c5:d7:3f:62:73:f5:af:26:e4:bd:fd:
                    f3:94:46:1e:b5:0a:5b:11:d6:f0:62:cb:3c:2c:5a:
                    6d:e8:39:63:08:43:18:31:f0:b3:f1:39:68:77:c9:
                    f2:1a:d4:6d:dc:d0:0b:30:db:36:41:9a:46:dd:2f:
                    e5:3c:5e:21:18:f0:ae:00:9f:02:9a:40:30:fc:25:
                    c7:55:51:ce:76:91:e7:a7:91:8c:55:fb:f8:93:8e:
                    10:23:0e:38:81:1f:a8:3f:22:f2:9c:a9:7e:a5:8f:
                    25:a5:8d:74:44:73:64:ab:6a:b5:90:5e:53:74:c9:
                    a9:e4:58:cd:92:4b:a0:a6:b5:88:6d:4f:c2:7a:5a:
                    26:79:f4:b8:d2:80:42:30:40:ab:9f:36:58:f1:b3:
                    a2:55:6c:4c:a5:35:a8:7d:66:63:05:e4:6d:14:f4:
                    3c:23:a3:22:89:aa:b3:b3:7d:db:e0:1f:5e:21:9d:
                    54:3d:91:25:c6:fd:89:08:ed:46:34:cc:00:36:20:
                    37:ae:7e:29:9e:13:c1:4a:8c:bd:84:7f:c1:12:c4:
                    90:5b
                Exponent: 65537 (0x10001)
        X509v3 extensions:
            X509v3 Basic Constraints: 
                CA:FALSE
            Netscape Comment: 
                OpenSSL Generated Certificate
            X509v3 Subject Key Identifier: 
                B0:C4:5F:4B:AB:41:61:8F:E0:40:BC:FA:0A:18:9E:BD:0E:BF:F3:26
            X509v3 Authority Key Identifier: 
                keyid:B0:94:93:81:C0:21:A6:48:A7:39:F5:11:68:84:62:0B:03:F6:EE:05

    Signature Algorithm: sha256WithRSAEncryption
         5d:4e:a4:ee:19:7d:87:01:3b:f3:39:1e:80:28:30:ce:9b:28:
         1b:6f:a8:16:46:01:73:01:57:da:96:14:c7:3a:a5:b1:d7:40:
         78:10:a3:62:13:6e:3f:53:c8:46:c4:48:87:37:6a:79:3a:ab:
         67:a8:7b:f0:6e:e7:41:30:a0:70:28:5c:bd:70:bd:b9:38:54:
         02:59:c1:fb:b3:a8:c5:44:a3:da:90:4b:68:66:48:90:b7:44:
         c5:5b:92:eb:a8:65:50:85:a7:f9:c2:a0:cb:f2:a9:bc:6e:af:
         01:24:98:ad:f5:dd:04:d3:fc:69:b5:2a:c8:7a:15:f2:10:72:
         26:8e:64:81:27:4a:cd:a9:71:e9:e1:b9:eb:e2:d8:97:6e:ab:
         c4:99:42:70:9c:36:69:d2:bc:12:f9:1e:a7:65:58:4d:49:7e:
         55:29:b3:a5:12:cb:2c:a0:73:df:84:95:57:4b:d3:50:ea:b9:
         cc:cd:a8:6f:24:54:49:3a:ef:3e:b8:7b:8a:85:26:15:70:07:
         1e:ef:57:3b:44:d3:38:3f:fe:84:8f:a7:e1:82:17:a0:1c:6b:
         a2:30:7a:93:e7:0a:4c:b8:91:6d:f5:d1:c5:ec:c0:b8:63:5a:
         d9:75:4c:7d:7c:4e:d1:74:4f:6a:6e:e6:9c:64:7a:56:63:80:
         a3:53:a6:c6:ad:86:92:b3:01:ba:08:c4:8f:42:06:14:17:a7:
         a1:71:1f:f6:59:33:65:4e:4f:8f:41:af:e3:fd:e0:e4:b8:d9:
         9b:4e:42:a7:33:90:04:0a:1d:c1:c9:8e:88:1b:75:07:22:10:
         41:1b:7a:ea:e1:80:56:87:cb:77:bf:16:02:36:3d:fd:05:f7:
         ae:f2:ca:12:aa:37:78:2f:27:6c:47:15:72:ad:4d:d0:17:1c:
         64:67:a0:76:54:76:88:70:ef:91:17:50:21:8d:5f:9d:72:9b:
         b3:29:3f:e7:12:2c:28:e3:b3:22:94:c6:da:9b:b2:d6:76:8d:
         66:02:f6:3d:76:13:6c:fd:19:2b:bd:13:0c:a3:23:f4:18:0f:
         f9:4f:57:4a:49:f1:9c:88:29:a2:7c:3a:af:8f:9e:ff:7b:ef:
         8a:1c:f1:3b:da:7a:12:5f:98:27:41:10:a1:65:10:dc:8b:b5:
         dc:a6:87:98:eb:ac:07:b0:d2:19:7a:ee:74:93:3f:89:ea:97:
         c6:6d:5a:85:ae:6e:dc:24:49:b3:a8:d4:35:2a:81:d0:a5:ff:
         2a:5c:82:a4:04:35:fc:1c:5a:5b:1e:e4:0f:d7:34:be:f7:67:
         42:f0:bd:09:98:23:ec:46:8e:a7:a4:32:c9:5c:03:3c:f8:a2:
         ac:f2:4e:73:c7:7b:71:e0
-----BEGIN CERTIFICATE-----
MIIFTjCCAzagAwIBAgIBATANBgkqhkiG9w0BAQsFADCBxDELMAkGA1UEBhMCQ04x
EjAQBgNVBAgMCUNob25ncWluZzESMBAGA1UEBwwJQ2hvbmdxaW5nMS0wKwYDVQQK
DCRDaG9uZ3FpbmcgRW1pbmcgVGVjaG5vbG9neSBDby4sIEx0ZC4xLTArBgNVBAsM
JENob25ncWluZyBFbWluZyBUZWNobm9sb2d5IENvLiwgTHRkLjESMBAGA1UEAwwJ
V2xuaWFvIENBMRswGQYJKoZIhvcNAQkBFgxhZG1pbkB3bG4uaW8wHhcNMTcwNDEz
MTUwNjU3WhcNMTgwNDEzMTUwNjU3WjCBkjELMAkGA1UEBhMCQ04xEjAQBgNVBAgM
CUNob25ncWluZzEtMCsGA1UECgwkQ2hvbmdxaW5nIEVtaW5nIFRlY2hub2xvZ3kg
Q28uLCBMdGQuMQ8wDQYDVQQLDAZXbG5pYW8xEjAQBgNVBAMMCXdsbmlhby5jbjEb
MBkGCSqGSIb3DQEJARYMYWRtaW5Ad2xuLmlvMIIBIjANBgkqhkiG9w0BAQEFAAOC
AQ8AMIIBCgKCAQEAlPx/ue4jG8iVK6vciAwJda3XgVUM6JjrWXxxby00MfsuhGqx
INsL/eUlJiR862yfxdc/YnP1rybkvf3zlEYetQpbEdbwYss8LFpt6DljCEMYMfCz
8Tlod8nyGtRt3NALMNs2QZpG3S/lPF4hGPCuAJ8CmkAw/CXHVVHOdpHnp5GMVfv4
k44QIw44gR+oPyLynKl+pY8lpY10RHNkq2q1kF5TdMmp5FjNkkugprWIbU/Celom
efS40oBCMECrnzZY8bOiVWxMpTWofWZjBeRtFPQ8I6Miiaqzs33b4B9eIZ1UPZEl
xv2JCO1GNMwANiA3rn4pnhPBSoy9hH/BEsSQWwIDAQABo3sweTAJBgNVHRMEAjAA
MCwGCWCGSAGG+EIBDQQfFh1PcGVuU1NMIEdlbmVyYXRlZCBDZXJ0aWZpY2F0ZTAd
BgNVHQ4EFgQUsMRfS6tBYY/gQLz6ChievQ6/8yYwHwYDVR0jBBgwFoAUsJSTgcAh
pkinOfURaIRiCwP27gUwDQYJKoZIhvcNAQELBQADggIBAF1OpO4ZfYcBO/M5HoAo
MM6bKBtvqBZGAXMBV9qWFMc6pbHXQHgQo2ITbj9TyEbESIc3ank6q2eoe/Bu50Ew
oHAoXL1wvbk4VAJZwfuzqMVEo9qQS2hmSJC3RMVbkuuoZVCFp/nCoMvyqbxurwEk
mK313QTT/Gm1Ksh6FfIQciaOZIEnSs2pcenhuevi2Jduq8SZQnCcNmnSvBL5Hqdl
WE1JflUps6USyyygc9+ElVdL01DquczNqG8kVEk67z64e4qFJhVwBx7vVztE0zg/
/oSPp+GCF6Aca6IwepPnCky4kW310cXswLhjWtl1TH18TtF0T2pu5pxkelZjgKNT
psathpKzAboIxI9CBhQXp6FxH/ZZM2VOT49Br+P94OS42ZtOQqczkAQKHcHJjogb
dQciEEEbeurhgFaHy3e/FgI2Pf0F967yyhKqN3gvJ2xHFXKtTdAXHGRnoHZUdohw
75EXUCGNX51ym7MpP+cSLCjjsyKUxtqbstZ2jWYC9j12E2z9GSu9EwyjI/QYD/lP
V0pJ8ZyIKaJ8Oq+Pnv9774oc8TvaehJfmCdBEKFlENyLtdymh5jrrAew0hl67nST
P4nql8ZtWoWubtwkSbOo1DUqgdCl/ypcgqQENfwcWlse5A/XNL73Z0LwvQmYI+xG
jqekMslcAzz4oqzyTnPHe3Hg
-----END CERTIFICATE-----
