Certificate:
    Data:
        Version: 3 (0x2)
        Serial Number: 2 (0x2)
    Signature Algorithm: sha256WithRSAEncryption
        Issuer: C=CN, ST=Chongqing, O=Chongqing Eming Technology Co., Ltd., OU=Chongqing Eming Technology Co., Ltd., CN=Wlniao Soft/emailAddress=admin@wln.io
        Validity
            Not Before: Apr 13 12:31:21 2017 GMT
            Not After : Apr 13 12:31:21 2018 GMT
        Subject: C=CN, ST=Chongqing, O=Chongqing Eming Technology Co., Ltd., OU=Wlniao, CN=wlniao.cn/emailAddress=admin@wln.io
        Subject Public Key Info:
            Public Key Algorithm: rsaEncryption
                Public-Key: (2048 bit)
                Modulus:
                    00:94:fc:7f:b9:ee:23:1b:c8:95:2b:ab:dc:88:0c:
                    09:75:ad:d7:81:55:0c:e8:98:eb:59:7c:71:6f:2d:
                    34:31:fb:2e:84:6a:b1:20:db:0b:fd:e5:25:26:24:
                    7c:eb:6c:9f:c5:d7:3f:62:73:f5:af:26:e4:bd:fd:
                    f3:94:46:1e:b5:0a:5b:11:d6:f0:62:cb:3c:2c:5a:
                    6d:e8:39:63:08:43:18:31:f0:b3:f1:39:68:77:c9:
                    f2:1a:d4:6d:dc:d0:0b:30:db:36:41:9a:46:dd:2f:
                    e5:3c:5e:21:18:f0:ae:00:9f:02:9a:40:30:fc:25:
                    c7:55:51:ce:76:91:e7:a7:91:8c:55:fb:f8:93:8e:
                    10:23:0e:38:81:1f:a8:3f:22:f2:9c:a9:7e:a5:8f:
                    25:a5:8d:74:44:73:64:ab:6a:b5:90:5e:53:74:c9:
                    a9:e4:58:cd:92:4b:a0:a6:b5:88:6d:4f:c2:7a:5a:
                    26:79:f4:b8:d2:80:42:30:40:ab:9f:36:58:f1:b3:
                    a2:55:6c:4c:a5:35:a8:7d:66:63:05:e4:6d:14:f4:
                    3c:23:a3:22:89:aa:b3:b3:7d:db:e0:1f:5e:21:9d:
                    54:3d:91:25:c6:fd:89:08:ed:46:34:cc:00:36:20:
                    37:ae:7e:29:9e:13:c1:4a:8c:bd:84:7f:c1:12:c4:
                    90:5b
                Exponent: 65537 (0x10001)
        X509v3 extensions:
            X509v3 Basic Constraints: 
                CA:FALSE
            Netscape Comment: 
                OpenSSL Generated Certificate
            X509v3 Subject Key Identifier: 
                B0:C4:5F:4B:AB:41:61:8F:E0:40:BC:FA:0A:18:9E:BD:0E:BF:F3:26
            X509v3 Authority Key Identifier: 
                keyid:E7:F2:79:8D:11:A2:C9:1B:5C:B7:DA:B7:B3:A7:9F:F9:80:D9:0C:43

    Signature Algorithm: sha256WithRSAEncryption
         82:02:34:8a:01:14:15:f3:81:f2:f5:17:69:53:3f:62:31:50:
         be:cc:a5:2d:ed:ce:81:8b:d4:21:e5:06:5a:a9:08:49:00:e6:
         8d:59:60:8b:3e:23:c0:04:35:82:f2:89:12:d8:cf:84:90:f5:
         80:92:36:f3:7b:fa:8d:ff:5b:8e:0b:98:e5:c4:6f:e6:b8:72:
         a0:2a:ec:a5:59:6e:90:5d:4d:b1:07:53:80:fb:46:24:d5:9b:
         bf:8b:86:cf:69:25:20:01:9d:ae:fa:cf:eb:70:cc:a8:e3:cb:
         e6:fb:d3:6d:d6:05:38:7b:89:fb:f0:df:95:f0:7d:43:f6:e6:
         c1:de:72:c1:95:98:02:f3:c5:c1:7f:96:54:54:a6:06:29:4e:
         ab:32:13:76:84:ef:0e:94:d3:69:21:62:50:f7:ba:7f:3d:45:
         f8:74:e1:96:86:09:27:f3:94:09:f0:47:a3:e2:3a:18:3a:28:
         6d:6d:e1:6f:9c:7f:26:f1:ef:3b:87:31:b7:61:84:90:e1:a4:
         e6:72:de:9e:61:95:72:36:9b:d0:6e:3d:e2:08:45:1b:10:bc:
         0c:a1:fa:53:0a:14:14:26:6e:bd:d6:e8:46:97:ba:21:50:fa:
         83:49:fc:24:0a:79:04:be:41:ac:92:ae:69:f6:54:3f:39:8a:
         8d:00:16:81
-----BEGIN CERTIFICATE-----
MIIEPDCCAySgAwIBAgIBAjANBgkqhkiG9w0BAQsFADCBsjELMAkGA1UEBhMCQ04x
EjAQBgNVBAgMCUNob25ncWluZzEtMCsGA1UECgwkQ2hvbmdxaW5nIEVtaW5nIFRl
Y2hub2xvZ3kgQ28uLCBMdGQuMS0wKwYDVQQLDCRDaG9uZ3FpbmcgRW1pbmcgVGVj
aG5vbG9neSBDby4sIEx0ZC4xFDASBgNVBAMMC1dsbmlhbyBTb2Z0MRswGQYJKoZI
hvcNAQkBFgxhZG1pbkB3bG4uaW8wHhcNMTcwNDEzMTIzMTIxWhcNMTgwNDEzMTIz
MTIxWjCBkjELMAkGA1UEBhMCQ04xEjAQBgNVBAgMCUNob25ncWluZzEtMCsGA1UE
CgwkQ2hvbmdxaW5nIEVtaW5nIFRlY2hub2xvZ3kgQ28uLCBMdGQuMQ8wDQYDVQQL
DAZXbG5pYW8xEjAQBgNVBAMMCXdsbmlhby5jbjEbMBkGCSqGSIb3DQEJARYMYWRt
aW5Ad2xuLmlvMIIBIjANBgkqhkiG9w0BAQEFAAOCAQ8AMIIBCgKCAQEAlPx/ue4j
G8iVK6vciAwJda3XgVUM6JjrWXxxby00MfsuhGqxINsL/eUlJiR862yfxdc/YnP1
rybkvf3zlEYetQpbEdbwYss8LFpt6DljCEMYMfCz8Tlod8nyGtRt3NALMNs2QZpG
3S/lPF4hGPCuAJ8CmkAw/CXHVVHOdpHnp5GMVfv4k44QIw44gR+oPyLynKl+pY8l
pY10RHNkq2q1kF5TdMmp5FjNkkugprWIbU/CelomefS40oBCMECrnzZY8bOiVWxM
pTWofWZjBeRtFPQ8I6Miiaqzs33b4B9eIZ1UPZElxv2JCO1GNMwANiA3rn4pnhPB
Soy9hH/BEsSQWwIDAQABo3sweTAJBgNVHRMEAjAAMCwGCWCGSAGG+EIBDQQfFh1P
cGVuU1NMIEdlbmVyYXRlZCBDZXJ0aWZpY2F0ZTAdBgNVHQ4EFgQUsMRfS6tBYY/g
QLz6ChievQ6/8yYwHwYDVR0jBBgwFoAU5/J5jRGiyRtct9q3s6ef+YDZDEMwDQYJ
KoZIhvcNAQELBQADggEBAIICNIoBFBXzgfL1F2lTP2IxUL7MpS3tzoGL1CHlBlqp
CEkA5o1ZYIs+I8AENYLyiRLYz4SQ9YCSNvN7+o3/W44LmOXEb+a4cqAq7KVZbpBd
TbEHU4D7RiTVm7+Lhs9pJSABna76z+twzKjjy+b7023WBTh7ifvw35XwfUP25sHe
csGVmALzxcF/llRUpgYpTqsyE3aE7w6U02khYlD3un89Rfh04ZaGCSfzlAnwR6Pi
Ohg6KG1t4W+cfybx7zuHMbdhhJDhpOZy3p5hlXI2m9BuPeIIRRsQvAyh+lMKFBQm
br3W6EaXuiFQ+oNJ/CQKeQS+QaySrmn2VD85io0AFoE=
-----END CERTIFICATE-----
